target datalayout = "e-m:e-p270:32:32-p271:32:32-p272:64:64-i64:64-i128:128-f80:128-n8:16:32:64-S128"
target triple = "x86_64-pc-linux-gnu"

; Function Attrs: nounwind uwtable
define i64 @wc_strlcpy(ptr noundef %0, ptr noundef %1, i64 noundef %2) #0 {
  %4 = alloca i64, align 8
  %5 = alloca ptr, align 8
  %6 = alloca ptr, align 8
  %7 = alloca i64, align 8
  %8 = alloca i64, align 8
  %9 = alloca i32, align 4
  store ptr %0, ptr %5, align 8, !tbaa !7
  store ptr %1, ptr %6, align 8, !tbaa !7
  store i64 %2, ptr %7, align 8, !tbaa !15
  call void @llvm.lifetime.start.p0(i64 8, ptr %8) #7
  %10 = load i64, ptr %7, align 8, !tbaa !15
  %11 = icmp ne i64 %10, 0
  br i1 %11, label %13, label %12

12:                                               ; preds = %3
  store i64 0, ptr %4, align 8
  store i32 1, ptr %9, align 4
  br label %38

13:                                               ; preds = %3
  store i64 0, ptr %8, align 8, !tbaa !15
  br label %14

14:                                               ; preds = %32, %13
  %15 = load i64, ptr %8, align 8, !tbaa !15
  %16 = load i64, ptr %7, align 8, !tbaa !15
  %17 = sub i64 %16, 1
  %18 = icmp ult i64 %15, %17
  br i1 %18, label %19, label %24

19:                                               ; preds = %14
  %20 = load ptr, ptr %6, align 8, !tbaa !7
  %21 = load i8, ptr %20, align 1, !tbaa !29
  %22 = sext i8 %21 to i32
  %23 = icmp ne i32 %22, 0
  br label %24

24:                                               ; preds = %19, %14
  %25 = phi i1 [ false, %14 ], [ %23, %19 ]
  br i1 %25, label %26, label %35

26:                                               ; preds = %24
  %27 = load ptr, ptr %6, align 8, !tbaa !7
  %28 = getelementptr inbounds nuw i8, ptr %27, i32 1
  store ptr %28, ptr %6, align 8, !tbaa !7
  %29 = load i8, ptr %27, align 1, !tbaa !29
  %30 = load ptr, ptr %5, align 8, !tbaa !7
  %31 = getelementptr inbounds nuw i8, ptr %30, i32 1
  store ptr %31, ptr %5, align 8, !tbaa !7
  store i8 %29, ptr %30, align 1, !tbaa !29
  br label %32

32:                                               ; preds = %26
  %33 = load i64, ptr %8, align 8, !tbaa !15
  %34 = add i64 %33, 1
  store i64 %34, ptr %8, align 8, !tbaa !15
  br label %14, !llvm.loop !39

35:                                               ; preds = %24
  %36 = load ptr, ptr %5, align 8, !tbaa !7
  store i8 0, ptr %36, align 1, !tbaa !29
  %37 = load i64, ptr %8, align 8, !tbaa !15
  store i64 %37, ptr %4, align 8
  store i32 1, ptr %9, align 4
  br label %38

38:                                               ; preds = %35, %12
  call void @llvm.lifetime.end.p0(i64 8, ptr %8) #7
  %39 = load i64, ptr %4, align 8
  ret i64 %39
}