; Function Attrs: nofree norecurse nosync nounwind memory(argmem: readwrite) uwtable
define i64 @wc_strlcpy(ptr noundef writeonly captures(none) %0, ptr noundef readonly captures(none) %1, i64 noundef %2) local_unnamed_addr #10 {
  %.not = icmp eq i64 %2, 0
  br i1 %.not, label %10, label %.preheader

.preheader:                                       ; preds = %3
  %4 = add i64 %2, -1
  %.not21 = icmp eq i64 %4, 0
  br i1 %.not21, label %.critedge, label %.lr.ph

.lr.ph:                                           ; preds = %.preheader, %6
  %.016 = phi i64 [ %9, %6 ], [ 0, %.preheader ]
  %.01015 = phi ptr [ %7, %6 ], [ %1, %.preheader ]
  %.01114 = phi ptr [ %8, %6 ], [ %0, %.preheader ]
  %5 = load i8, ptr %.01015, align 1, !tbaa !20
  %.not13 = icmp eq i8 %5, 0
  br i1 %.not13, label %.critedge, label %6

6:                                                ; preds = %.lr.ph
  %7 = getelementptr inbounds nuw i8, ptr %.01015, i64 1
  %8 = getelementptr inbounds nuw i8, ptr %.01114, i64 1
  store i8 %5, ptr %.01114, align 1, !tbaa !20
  %9 = add nuw i64 %.016, 1
  %exitcond.not = icmp eq i64 %9, %4
  br i1 %exitcond.not, label %.critedge, label %.lr.ph, !llvm.loop !28

.critedge:                                        ; preds = %.lr.ph, %6, %.preheader
  %.011.lcssa = phi ptr [ %0, %.preheader ], [ %8, %6 ], [ %.01114, %.lr.ph ]
  %.0.lcssa = phi i64 [ 0, %.preheader ], [ %4, %6 ], [ %.016, %.lr.ph ]
  store i8 0, ptr %.011.lcssa, align 1, !tbaa !20
  br label %10

10:                                               ; preds = %3, %.critedge
  %.09 = phi i64 [ %.0.lcssa, %.critedge ], [ 0, %3 ]
  ret i64 %.09
}